; Function Attrs: nounwind uwtable
define zeroext range(i8 0, 2) i8 @l_Array_anyMUnsafe_any___at_Lean_Meta_SimpTheoremsArray_isLetDeclToUnfold___spec__1(ptr noundef %0, ptr noundef readonly captures(none) %1, i64 noundef %2, i64 noundef %3) local_unnamed_addr #1 {
  %.not28 = icmp eq i64 %2, %3
  br i1 %.not28, label %l_Lean_Meta_SimpTheorems_isLetDeclToUnfold.exit._crit_edge, label %.lr.ph

.lr.ph:                                           ; preds = %4
  %5 = getelementptr inbounds nuw i8, ptr %1, i64 24
  br label %8

6:                                                ; preds = %l_Lean_Meta_SimpTheorems_isLetDeclToUnfold.exit
  %7 = add i64 %.01429, 1
  %.not = icmp eq i64 %7, %3
  br i1 %.not, label %l_Lean_Meta_SimpTheorems_isLetDeclToUnfold.exit._crit_edge, label %8

8:                                                ; preds = %.lr.ph, %6
  %.01429 = phi i64 [ %2, %.lr.ph ], [ %7, %6 ]
  %9 = getelementptr inbounds nuw [0 x ptr], ptr %5, i64 0, i64 %.01429
  %10 = load ptr, ptr %9, align 8, !tbaa !9
  %11 = ptrtoint ptr %10 to i64
  %12 = and i64 %11, 1
  %.not.i = icmp eq i64 %12, 0
  br i1 %.not.i, label %13, label %lean_array_uget.exit

13:                                               ; preds = %8
  %.val.i.i = load i32, ptr %10, align 4, !tbaa !4
  %14 = icmp sgt i32 %.val.i.i, 0
  br i1 %14, label %15, label %17, !prof !11

15:                                               ; preds = %13
  %16 = add nuw i32 %.val.i.i, 1
  store i32 %16, ptr %10, align 4, !tbaa !4
  br label %lean_array_uget.exit

17:                                               ; preds = %13
  %.not.i.i = icmp eq i32 %.val.i.i, 0
  br i1 %.not.i.i, label %lean_array_uget.exit, label %18

18:                                               ; preds = %17
  tail call void @lean_inc_ref_cold(ptr noundef nonnull %10) #6
  br label %lean_array_uget.exit

lean_array_uget.exit:                             ; preds = %8, %15, %17, %18
  %19 = getelementptr inbounds nuw i8, ptr %10, i64 32
  %20 = load ptr, ptr %19, align 8, !tbaa !9
  %21 = ptrtoint ptr %20 to i64
  %22 = and i64 %21, 1
  %.not.i19 = icmp eq i64 %22, 0
  br i1 %.not.i19, label %23, label %lean_inc.exit.i

23:                                               ; preds = %lean_array_uget.exit
  %.val.i.i21 = load i32, ptr %20, align 4, !tbaa !4
  %24 = icmp sgt i32 %.val.i.i21, 0
  br i1 %24, label %25, label %27, !prof !11

25:                                               ; preds = %23
  %26 = add nuw i32 %.val.i.i21, 1
  store i32 %26, ptr %20, align 4, !tbaa !4
  br label %lean_inc.exit.i

27:                                               ; preds = %23
  %.not.i5.i = icmp eq i32 %.val.i.i21, 0
  br i1 %.not.i5.i, label %lean_inc.exit.i, label %28

28:                                               ; preds = %27
  tail call void @lean_inc_ref_cold(ptr noundef nonnull %20) #6
  br label %lean_inc.exit.i

lean_inc.exit.i:                                  ; preds = %28, %27, %25, %lean_array_uget.exit
  br i1 %.not.i, label %29, label %l_Lean_Meta_SimpTheorems_isLetDeclToUnfold.exit

29:                                               ; preds = %lean_inc.exit.i
  %30 = load i32, ptr %10, align 4, !tbaa !4
  %31 = icmp sgt i32 %30, 1
  br i1 %31, label %32, label %34, !prof !11

32:                                               ; preds = %29
  %33 = add nsw i32 %30, -1
  store i32 %33, ptr %10, align 4, !tbaa !4
  br label %l_Lean_Meta_SimpTheorems_isLetDeclToUnfold.exit

34:                                               ; preds = %29
  %.not.i.i20 = icmp eq i32 %30, 0
  br i1 %.not.i.i20, label %l_Lean_Meta_SimpTheorems_isLetDeclToUnfold.exit, label %35

35:                                               ; preds = %34
  tail call void @lean_dec_ref_cold(ptr noundef nonnull %10) #6
  br label %l_Lean_Meta_SimpTheorems_isLetDeclToUnfold.exit

l_Lean_Meta_SimpTheorems_isLetDeclToUnfold.exit:  ; preds = %lean_inc.exit.i, %32, %34, %35
  %36 = tail call zeroext i8 @l_Lean_PersistentHashMap_contains___at_Lean_NameSSet_contains___spec__2(ptr noundef %20, ptr noundef %0) #6
  %37 = icmp eq i8 %36, 0
  br i1 %37, label %6, label %l_Lean_Meta_SimpTheorems_isLetDeclToUnfold.exit._crit_edge

l_Lean_Meta_SimpTheorems_isLetDeclToUnfold.exit._crit_edge: ; preds = %6, %l_Lean_Meta_SimpTheorems_isLetDeclToUnfold.exit, %4
  %.2.ph = phi i8 [ 0, %4 ], [ 1, %l_Lean_Meta_SimpTheorems_isLetDeclToUnfold.exit ], [ 0, %6 ]
  ret i8 %.2.ph
}